; Function Attrs: nounwind uwtable
define range(i32 -13, 1) i32 @prte_state_base_remove_job_state(i32 noundef %0) local_unnamed_addr #0 {
  %prte_job_states.val = load ptr, ptr getelementptr inbounds nuw (i8, ptr @prte_job_states, i64 240), align 8, !tbaa !3
  %.not19 = icmp eq ptr %prte_job_states.val, getelementptr inbounds nuw (i8, ptr @prte_job_states, i64 120)
  br i1 %.not19, label %.loopexit, label %.lr.ph

.lr.ph:                                           ; preds = %1, %41
  %.01420 = phi ptr [ %42, %41 ], [ %prte_job_states.val, %1 ]
  %2 = getelementptr inbounds nuw i8, ptr %.01420, i64 144
  %3 = load i32, ptr %2, align 8, !tbaa !15
  %4 = icmp eq i32 %3, %0
  br i1 %4, label %5, label %37

5:                                                ; preds = %.lr.ph
  %6 = getelementptr inbounds nuw i8, ptr %.01420, i64 120
  %7 = load ptr, ptr %6, align 8, !tbaa !51
  %8 = getelementptr inbounds nuw i8, ptr %.01420, i64 128
  %9 = load ptr, ptr %8, align 8, !tbaa !54
  %10 = getelementptr inbounds nuw i8, ptr %9, i64 120
  store volatile ptr %7, ptr %10, align 8, !tbaa !51
  %11 = getelementptr inbounds nuw i8, ptr %7, i64 128
  store volatile ptr %9, ptr %11, align 8, !tbaa !54
  %12 = load volatile i64, ptr getelementptr inbounds nuw (i8, ptr @prte_job_states, i64 264), align 8, !tbaa !55
  %13 = add i64 %12, -1
  store volatile i64 %13, ptr getelementptr inbounds nuw (i8, ptr @prte_job_states, i64 264), align 8, !tbaa !55
  %14 = tail call i32 @pthread_mutex_lock(ptr noundef %.01420) #14
  %15 = icmp eq i32 %14, 35
  br i1 %15, label %16, label %pmix_obj_update.exit

16:                                               ; preds = %5
  %17 = tail call ptr @__errno_location() #16
  store i32 35, ptr %17, align 4, !tbaa !31
  tail call void @perror(ptr noundef nonnull @.str.59) #17
  tail call void @abort() #18
  unreachable

pmix_obj_update.exit:                             ; preds = %5
  %18 = getelementptr inbounds nuw i8, ptr %.01420, i64 48
  %19 = load i32, ptr %18, align 8, !tbaa !34
  %20 = add nsw i32 %19, -1
  store i32 %20, ptr %18, align 8, !tbaa !34
  %21 = tail call i32 @pthread_mutex_unlock(ptr noundef %.01420) #14
  %22 = icmp eq i32 %20, 0
  br i1 %22, label %23, label %.loopexit

23:                                               ; preds = %pmix_obj_update.exit
  %24 = getelementptr inbounds nuw i8, ptr %.01420, i64 40
  %25 = load ptr, ptr %24, align 8, !tbaa !33
  %26 = getelementptr inbounds nuw i8, ptr %25, i64 48
  %27 = load ptr, ptr %26, align 8, !tbaa !57
  %28 = load ptr, ptr %27, align 8, !tbaa !36
  %.not6.i = icmp eq ptr %28, null
  br i1 %.not6.i, label %pmix_obj_run_destructors.exit, label %.lr.ph.i

.lr.ph.i:                                         ; preds = %23, %.lr.ph.i
  %29 = phi ptr [ %31, %.lr.ph.i ], [ %28, %23 ]
  %.07.i = phi ptr [ %30, %.lr.ph.i ], [ %27, %23 ]
  tail call void %29(ptr noundef %.01420) #14
  %30 = getelementptr inbounds nuw i8, ptr %.07.i, i64 8
  %31 = load ptr, ptr %30, align 8, !tbaa !36
  %.not.i = icmp eq ptr %31, null
  br i1 %.not.i, label %pmix_obj_run_destructors.exit, label %.lr.ph.i, !llvm.loop !58

pmix_obj_run_destructors.exit:                    ; preds = %.lr.ph.i, %23
  %32 = getelementptr inbounds nuw i8, ptr %.01420, i64 96
  %33 = load ptr, ptr %32, align 8, !tbaa !59
  %.not16 = icmp eq ptr %33, null
  br i1 %.not16, label %36, label %34

34:                                               ; preds = %pmix_obj_run_destructors.exit
  %35 = getelementptr inbounds nuw i8, ptr %.01420, i64 56
  tail call void %33(ptr noundef nonnull %35, ptr noundef nonnull %.01420) #14
  br label %.loopexit

36:                                               ; preds = %pmix_obj_run_destructors.exit
  tail call void @free(ptr noundef nonnull %.01420) #14
  br label %.loopexit

37:                                               ; preds = %.lr.ph
  %.not15 = icmp eq ptr %.01420, null
  br i1 %.not15, label %41, label %38

38:                                               ; preds = %37
  %39 = getelementptr inbounds nuw i8, ptr %.01420, i64 120
  %40 = load ptr, ptr %39, align 8, !tbaa !51
  br label %41

41:                                               ; preds = %37, %38
  %42 = phi ptr [ %40, %38 ], [ null, %37 ]
  %.not = icmp eq ptr %42, getelementptr inbounds nuw (i8, ptr @prte_job_states, i64 120)
  br i1 %.not, label %.loopexit, label %.lr.ph, !llvm.loop !60

.loopexit:                                        ; preds = %41, %1, %pmix_obj_update.exit, %36, %34
  %.0 = phi i32 [ 0, %34 ], [ 0, %36 ], [ 0, %pmix_obj_update.exit ], [ -13, %1 ], [ -13, %41 ]
  ret i32 %.0
}